target datalayout = "e-m:e-p270:32:32-p271:32:32-p272:64:64-i64:64-i128:128-f80:128-n8:16:32:64-S128"
target triple = "x86_64-pc-linux-gnu"

%struct.GetBitContext = type { ptr, ptr, i32, i32, i32 }

; Function Attrs: inlinehint nounwind willreturn memory(none) uwtable
define internal i32 @zero_extend(i32 noundef %0, i32 noundef %1) #6 {
  %3 = alloca i32, align 4
  %4 = alloca i32, align 4
  store i32 %0, ptr %3, align 4, !tbaa !18
  store i32 %1, ptr %4, align 4, !tbaa !18
  %5 = load i32, ptr %3, align 4, !tbaa !18
  %6 = load i32, ptr %4, align 4, !tbaa !18
  %7 = zext i32 %6 to i64
  %8 = sub i64 32, %7
  %9 = trunc i64 %8 to i32
  %10 = shl i32 %5, %9
  %11 = load i32, ptr %4, align 4, !tbaa !18
  %12 = zext i32 %11 to i64
  %13 = sub i64 32, %12
  %14 = trunc i64 %13 to i32
  %15 = lshr i32 %10, %14
  ret i32 %15
}

; Function Attrs: inlinehint nounwind uwtable
define internal i32 @get_bits1(ptr noundef %0) #4 {
  %2 = alloca ptr, align 8
  %3 = alloca i32, align 4
  %4 = alloca i8, align 1
  store ptr %0, ptr %2, align 8, !tbaa !77
  call void @llvm.lifetime.start.p0(i64 4, ptr %3) #9
  %5 = load ptr, ptr %2, align 8, !tbaa !77
  %6 = getelementptr inbounds nuw %struct.GetBitContext, ptr %5, i32 0, i32 2
  %7 = load i32, ptr %6, align 8, !tbaa !79
  store i32 %7, ptr %3, align 4, !tbaa !18
  call void @llvm.lifetime.start.p0(i64 1, ptr %4) #9
  %8 = load ptr, ptr %2, align 8, !tbaa !77
  %9 = getelementptr inbounds nuw %struct.GetBitContext, ptr %8, i32 0, i32 0
  %10 = load ptr, ptr %9, align 8, !tbaa !85
  %11 = load i32, ptr %3, align 4, !tbaa !18
  %12 = lshr i32 %11, 3
  %13 = zext i32 %12 to i64
  %14 = getelementptr inbounds nuw i8, ptr %10, i64 %13
  %15 = load i8, ptr %14, align 1, !tbaa !43
  store i8 %15, ptr %4, align 1, !tbaa !43
  %16 = load i32, ptr %3, align 4, !tbaa !18
  %17 = and i32 %16, 7
  %18 = load i8, ptr %4, align 1, !tbaa !43
  %19 = zext i8 %18 to i32
  %20 = ashr i32 %19, %17
  %21 = trunc i32 %20 to i8
  store i8 %21, ptr %4, align 1, !tbaa !43
  %22 = load i8, ptr %4, align 1, !tbaa !43
  %23 = zext i8 %22 to i32
  %24 = and i32 %23, 1
  %25 = trunc i32 %24 to i8
  store i8 %25, ptr %4, align 1, !tbaa !43
  %26 = load ptr, ptr %2, align 8, !tbaa !77
  %27 = getelementptr inbounds nuw %struct.GetBitContext, ptr %26, i32 0, i32 2
  %28 = load i32, ptr %27, align 8, !tbaa !79
  %29 = load ptr, ptr %2, align 8, !tbaa !77
  %30 = getelementptr inbounds nuw %struct.GetBitContext, ptr %29, i32 0, i32 4
  %31 = load i32, ptr %30, align 8, !tbaa !81
  %32 = icmp slt i32 %28, %31
  br i1 %32, label %33, label %36

33:                                               ; preds = %1
  %34 = load i32, ptr %3, align 4, !tbaa !18
  %35 = add i32 %34, 1
  store i32 %35, ptr %3, align 4, !tbaa !18
  br label %36

36:                                               ; preds = %33, %1
  %37 = load i32, ptr %3, align 4, !tbaa !18
  %38 = load ptr, ptr %2, align 8, !tbaa !77
  %39 = getelementptr inbounds nuw %struct.GetBitContext, ptr %38, i32 0, i32 2
  store i32 %37, ptr %39, align 8, !tbaa !79
  %40 = load i8, ptr %4, align 1, !tbaa !43
  %41 = zext i8 %40 to i32
  call void @llvm.lifetime.end.p0(i64 1, ptr %4) #9
  call void @llvm.lifetime.end.p0(i64 4, ptr %3) #9
  ret i32 %41
}

; Function Attrs: inlinehint nounwind uwtable
define internal i32 @get_bits(ptr noundef %0, i32 noundef %1) #4 {
  %3 = alloca ptr, align 8
  %4 = alloca i32, align 4
  %5 = alloca i32, align 4
  %6 = alloca i32, align 4
  %7 = alloca i32, align 4
  %8 = alloca i32, align 4
  store ptr %0, ptr %3, align 8, !tbaa !77
  store i32 %1, ptr %4, align 4, !tbaa !18
  call void @llvm.lifetime.start.p0(i64 4, ptr %5) #9
  call void @llvm.lifetime.start.p0(i64 4, ptr %6) #9
  %9 = load ptr, ptr %3, align 8, !tbaa !77
  %10 = getelementptr inbounds nuw %struct.GetBitContext, ptr %9, i32 0, i32 2
  %11 = load i32, ptr %10, align 8, !tbaa !79
  store i32 %11, ptr %6, align 4, !tbaa !18
  call void @llvm.lifetime.start.p0(i64 4, ptr %7) #9
  call void @llvm.lifetime.start.p0(i64 4, ptr %8) #9
  %12 = load ptr, ptr %3, align 8, !tbaa !77
  %13 = getelementptr inbounds nuw %struct.GetBitContext, ptr %12, i32 0, i32 4
  %14 = load i32, ptr %13, align 8, !tbaa !81
  store i32 %14, ptr %8, align 4, !tbaa !18
  %15 = load ptr, ptr %3, align 8, !tbaa !77
  %16 = getelementptr inbounds nuw %struct.GetBitContext, ptr %15, i32 0, i32 0
  %17 = load ptr, ptr %16, align 8, !tbaa !85
  %18 = load i32, ptr %6, align 4, !tbaa !18
  %19 = lshr i32 %18, 3
  %20 = zext i32 %19 to i64
  %21 = getelementptr inbounds nuw i8, ptr %17, i64 %20
  %22 = load i32, ptr %21, align 1, !tbaa !43
  %23 = load i32, ptr %6, align 4, !tbaa !18
  %24 = and i32 %23, 7
  %25 = lshr i32 %22, %24
  store i32 %25, ptr %7, align 4, !tbaa !18
  %26 = load i32, ptr %7, align 4, !tbaa !18
  %27 = load i32, ptr %4, align 4, !tbaa !18
  %28 = call i32 @zero_extend(i32 noundef %26, i32 noundef %27) #10
  store i32 %28, ptr %5, align 4, !tbaa !18
  %29 = load i32, ptr %8, align 4, !tbaa !18
  %30 = load i32, ptr %6, align 4, !tbaa !18
  %31 = load i32, ptr %4, align 4, !tbaa !18
  %32 = add i32 %30, %31
  %33 = icmp ugt i32 %29, %32
  br i1 %33, label %34, label %38

34:                                               ; preds = %2
  %35 = load i32, ptr %6, align 4, !tbaa !18
  %36 = load i32, ptr %4, align 4, !tbaa !18
  %37 = add i32 %35, %36
  br label %40

38:                                               ; preds = %2
  %39 = load i32, ptr %8, align 4, !tbaa !18
  br label %40

40:                                               ; preds = %38, %34
  %41 = phi i32 [ %37, %34 ], [ %39, %38 ]
  store i32 %41, ptr %6, align 4, !tbaa !18
  %42 = load i32, ptr %6, align 4, !tbaa !18
  %43 = load ptr, ptr %3, align 8, !tbaa !77
  %44 = getelementptr inbounds nuw %struct.GetBitContext, ptr %43, i32 0, i32 2
  store i32 %42, ptr %44, align 8, !tbaa !79
  %45 = load i32, ptr %5, align 4, !tbaa !18
  call void @llvm.lifetime.end.p0(i64 4, ptr %8) #9
  call void @llvm.lifetime.end.p0(i64 4, ptr %7) #9
  call void @llvm.lifetime.end.p0(i64 4, ptr %6) #9
  call void @llvm.lifetime.end.p0(i64 4, ptr %5) #9
  ret i32 %45
}

; Function Attrs: nounwind uwtable
define internal i64 @jxl_u64(ptr noundef %0) #0 {
  %2 = alloca ptr, align 8
  %3 = alloca i64, align 8
  %4 = alloca i64, align 8
  store ptr %0, ptr %2, align 8, !tbaa !77
  call void @llvm.lifetime.start.p0(i64 8, ptr %3) #9
  store i64 12, ptr %3, align 8, !tbaa !38
  call void @llvm.lifetime.start.p0(i64 8, ptr %4) #9
  %5 = load ptr, ptr %2, align 8, !tbaa !77
  %6 = call i32 @get_bits(ptr noundef %5, i32 noundef 2)
  switch i32 %6, label %48 [
    i32 1, label %7
    i32 2, label %12
    i32 3, label %17
  ]

7:                                                ; preds = %1
  %8 = load ptr, ptr %2, align 8, !tbaa !77
  %9 = call i32 @get_bits(ptr noundef %8, i32 noundef 4)
  %10 = add i32 1, %9
  %11 = zext i32 %10 to i64
  store i64 %11, ptr %4, align 8, !tbaa !38
  br label %49

12:                                               ; preds = %1
  %13 = load ptr, ptr %2, align 8, !tbaa !77
  %14 = call i32 @get_bits(ptr noundef %13, i32 noundef 8)
  %15 = add i32 17, %14
  %16 = zext i32 %15 to i64
  store i64 %16, ptr %4, align 8, !tbaa !38
  br label %49

17:                                               ; preds = %1
  %18 = load ptr, ptr %2, align 8, !tbaa !77
  %19 = call i32 @get_bits(ptr noundef %18, i32 noundef 12)
  %20 = zext i32 %19 to i64
  store i64 %20, ptr %4, align 8, !tbaa !38
  br label %21

21:                                               ; preds = %46, %17
  %22 = load ptr, ptr %2, align 8, !tbaa !77
  %23 = call i32 @get_bits1(ptr noundef %22)
  %24 = icmp ne i32 %23, 0
  br i1 %24, label %25, label %47

25:                                               ; preds = %21
  %26 = load i64, ptr %3, align 8, !tbaa !38
  %27 = icmp ult i64 %26, 60
  br i1 %27, label %28, label %38

28:                                               ; preds = %25
  %29 = load ptr, ptr %2, align 8, !tbaa !77
  %30 = call i32 @get_bits(ptr noundef %29, i32 noundef 8)
  %31 = zext i32 %30 to i64
  %32 = load i64, ptr %3, align 8, !tbaa !38
  %33 = shl i64 %31, %32
  %34 = load i64, ptr %4, align 8, !tbaa !38
  %35 = or i64 %34, %33
  store i64 %35, ptr %4, align 8, !tbaa !38
  %36 = load i64, ptr %3, align 8, !tbaa !38
  %37 = add i64 %36, 8
  store i64 %37, ptr %3, align 8, !tbaa !38
  br label %46

38:                                               ; preds = %25
  %39 = load ptr, ptr %2, align 8, !tbaa !77
  %40 = call i32 @get_bits(ptr noundef %39, i32 noundef 4)
  %41 = zext i32 %40 to i64
  %42 = load i64, ptr %3, align 8, !tbaa !38
  %43 = shl i64 %41, %42
  %44 = load i64, ptr %4, align 8, !tbaa !38
  %45 = or i64 %44, %43
  store i64 %45, ptr %4, align 8, !tbaa !38
  br label %47

46:                                               ; preds = %28
  br label %21, !llvm.loop !105

47:                                               ; preds = %38, %21
  br label %49

48:                                               ; preds = %1
  store i64 0, ptr %4, align 8, !tbaa !38
  br label %49

49:                                               ; preds = %48, %47, %12, %7
  %50 = load i64, ptr %4, align 8, !tbaa !38
  call void @llvm.lifetime.end.p0(i64 8, ptr %4) #9
  call void @llvm.lifetime.end.p0(i64 8, ptr %3) #9
  ret i64 %50
}